target datalayout = "e-m:e-p270:32:32-p271:32:32-p272:64:64-i64:64-i128:128-f80:128-n8:16:32:64-S128"
target triple = "x86_64-pc-linux-gnu"

%"struct.i18n::phonenumbers::(anonymous namespace)::NumberTest" = type { %"class.std::__cxx11::basic_string", %"class.std::__cxx11::basic_string" }
%"class.std::__cxx11::basic_string" = type { %"struct.std::__cxx11::basic_string<char>::_Alloc_hider", i64, %union.anon }
%"struct.std::__cxx11::basic_string<char>::_Alloc_hider" = type { ptr }
%union.anon = type { i64, [8 x i8] }

; Function Attrs: mustprogress uwtable
define internal void @_ZN4i18n12phonenumbers12_GLOBAL__N_110NumberTestC2ERKS2_(ptr noundef nonnull align 8 dereferenceable(64) %0, ptr noundef nonnull align 8 dereferenceable(64) %1) unnamed_addr #4 align 2 personality ptr @__gxx_personality_v0 {
  %3 = alloca ptr, align 8
  %4 = alloca ptr, align 8
  %5 = alloca ptr, align 8
  %6 = alloca i32, align 4
  store ptr %0, ptr %3, align 8
  store ptr %1, ptr %4, align 8
  %7 = load ptr, ptr %3, align 8
  %8 = getelementptr inbounds %"struct.i18n::phonenumbers::(anonymous namespace)::NumberTest", ptr %7, i32 0, i32 0
  %9 = load ptr, ptr %4, align 8
  %10 = getelementptr inbounds %"struct.i18n::phonenumbers::(anonymous namespace)::NumberTest", ptr %9, i32 0, i32 0
  call void @_ZNSt7__cxx1112basic_stringIcSt11char_traitsIcESaIcEEC1ERKS4_(ptr noundef nonnull align 8 dereferenceable(32) %8, ptr noundef nonnull align 8 dereferenceable(32) %10)
  %11 = getelementptr inbounds %"struct.i18n::phonenumbers::(anonymous namespace)::NumberTest", ptr %7, i32 0, i32 1
  %12 = load ptr, ptr %4, align 8
  %13 = getelementptr inbounds %"struct.i18n::phonenumbers::(anonymous namespace)::NumberTest", ptr %12, i32 0, i32 1
  invoke void @_ZNSt7__cxx1112basic_stringIcSt11char_traitsIcESaIcEEC1ERKS4_(ptr noundef nonnull align 8 dereferenceable(32) %11, ptr noundef nonnull align 8 dereferenceable(32) %13)
          to label %14 unwind label %15

14:                                               ; preds = %2
  ret void

15:                                               ; preds = %2
  %16 = landingpad { ptr, i32 }
          cleanup
  %17 = extractvalue { ptr, i32 } %16, 0
  store ptr %17, ptr %5, align 8
  %18 = extractvalue { ptr, i32 } %16, 1
  store i32 %18, ptr %6, align 4
  call void @_ZNSt7__cxx1112basic_stringIcSt11char_traitsIcESaIcEED1Ev(ptr noundef nonnull align 8 dereferenceable(32) %8) #3
  br label %19

19:                                               ; preds = %15
  %20 = load ptr, ptr %5, align 8
  %21 = load i32, ptr %6, align 4
  %22 = insertvalue { ptr, i32 } poison, ptr %20, 0
  %23 = insertvalue { ptr, i32 } %22, i32 %21, 1
  resume { ptr, i32 } %23
}

; Function Attrs: mustprogress uwtable
define internal void @_ZSt10_ConstructIN4i18n12phonenumbers12_GLOBAL__N_110NumberTestEJRKS3_EEvPT_DpOT0_(ptr noundef %0, ptr noundef nonnull align 8 dereferenceable(64) %1) #4 {
  %3 = alloca ptr, align 8
  %4 = alloca ptr, align 8
  store ptr %0, ptr %3, align 8
  store ptr %1, ptr %4, align 8
  %5 = load ptr, ptr %3, align 8
  %6 = load ptr, ptr %4, align 8
  call void @_ZN4i18n12phonenumbers12_GLOBAL__N_110NumberTestC2ERKS2_(ptr noundef nonnull align 8 dereferenceable(64) %5, ptr noundef nonnull align 8 dereferenceable(64) %6)
  ret void
}

; Function Attrs: mustprogress uwtable
define internal noundef ptr @_ZSt16__do_uninit_copyIPKN4i18n12phonenumbers12_GLOBAL__N_110NumberTestEPS3_ET0_T_S8_S7_(ptr noundef %0, ptr noundef %1, ptr noundef %2) #4 personality ptr @__gxx_personality_v0 {
  %4 = alloca ptr, align 8
  %5 = alloca ptr, align 8
  %6 = alloca ptr, align 8
  %7 = alloca ptr, align 8
  %8 = alloca ptr, align 8
  %9 = alloca i32, align 4
  store ptr %0, ptr %4, align 8
  store ptr %1, ptr %5, align 8
  store ptr %2, ptr %6, align 8
  %10 = load ptr, ptr %6, align 8
  store ptr %10, ptr %7, align 8
  br label %11

11:                                               ; preds = %19, %3
  %12 = load ptr, ptr %4, align 8
  %13 = load ptr, ptr %5, align 8
  %14 = icmp ne ptr %12, %13
  br i1 %14, label %15, label %34

15:                                               ; preds = %11
  %16 = load ptr, ptr %7, align 8
  %17 = load ptr, ptr %4, align 8
  invoke void @_ZSt10_ConstructIN4i18n12phonenumbers12_GLOBAL__N_110NumberTestEJRKS3_EEvPT_DpOT0_(ptr noundef %16, ptr noundef nonnull align 8 dereferenceable(64) %17)
          to label %18 unwind label %24

18:                                               ; preds = %15
  br label %19

19:                                               ; preds = %18
  %20 = load ptr, ptr %4, align 8
  %21 = getelementptr inbounds %"struct.i18n::phonenumbers::(anonymous namespace)::NumberTest", ptr %20, i32 1
  store ptr %21, ptr %4, align 8
  %22 = load ptr, ptr %7, align 8
  %23 = getelementptr inbounds %"struct.i18n::phonenumbers::(anonymous namespace)::NumberTest", ptr %22, i32 1
  store ptr %23, ptr %7, align 8
  br label %11, !llvm.loop !28

24:                                               ; preds = %15
  %25 = landingpad { ptr, i32 }
          catch ptr null
  %26 = extractvalue { ptr, i32 } %25, 0
  store ptr %26, ptr %8, align 8
  %27 = extractvalue { ptr, i32 } %25, 1
  store i32 %27, ptr %9, align 4
  br label %28

28:                                               ; preds = %24
  %29 = load ptr, ptr %8, align 8
  %30 = call ptr @__cxa_begin_catch(ptr %29) #3
  %31 = load ptr, ptr %6, align 8
  %32 = load ptr, ptr %7, align 8
  invoke void @_ZSt8_DestroyIPN4i18n12phonenumbers12_GLOBAL__N_110NumberTestEEvT_S5_(ptr noundef %31, ptr noundef %32)
          to label %33 unwind label %36

33:                                               ; preds = %28
  invoke void @__cxa_rethrow() #16
          to label %50 unwind label %36

34:                                               ; preds = %11
  %35 = load ptr, ptr %7, align 8
  ret ptr %35

36:                                               ; preds = %33, %28
  %37 = landingpad { ptr, i32 }
          cleanup
  %38 = extractvalue { ptr, i32 } %37, 0
  store ptr %38, ptr %8, align 8
  %39 = extractvalue { ptr, i32 } %37, 1
  store i32 %39, ptr %9, align 4
  invoke void @__cxa_end_catch()
          to label %40 unwind label %47

40:                                               ; preds = %36
  br label %42

41:                                               ; No predecessors!
  call void @llvm.trap()
  unreachable

42:                                               ; preds = %40
  %43 = load ptr, ptr %8, align 8
  %44 = load i32, ptr %9, align 4
  %45 = insertvalue { ptr, i32 } poison, ptr %43, 0
  %46 = insertvalue { ptr, i32 } %45, i32 %44, 1
  resume { ptr, i32 } %46

47:                                               ; preds = %36
  %48 = landingpad { ptr, i32 }
          catch ptr null
  %49 = extractvalue { ptr, i32 } %48, 0
  call void @__clang_call_terminate(ptr %49) #17
  unreachable

50:                                               ; preds = %33
  unreachable
}

; Function Attrs: mustprogress uwtable
define internal noundef ptr @_ZNSt20__uninitialized_copyILb0EE13__uninit_copyIPKN4i18n12phonenumbers12_GLOBAL__N_110NumberTestEPS5_EET0_T_SA_S9_(ptr noundef %0, ptr noundef %1, ptr noundef %2) #4 align 2 {
  %4 = alloca ptr, align 8
  %5 = alloca ptr, align 8
  %6 = alloca ptr, align 8
  store ptr %0, ptr %4, align 8
  store ptr %1, ptr %5, align 8
  store ptr %2, ptr %6, align 8
  %7 = load ptr, ptr %4, align 8
  %8 = load ptr, ptr %5, align 8
  %9 = load ptr, ptr %6, align 8
  %10 = call noundef ptr @_ZSt16__do_uninit_copyIPKN4i18n12phonenumbers12_GLOBAL__N_110NumberTestEPS3_ET0_T_S8_S7_(ptr noundef %7, ptr noundef %8, ptr noundef %9)
  ret ptr %10
}

; Function Attrs: mustprogress uwtable
define internal noundef ptr @_ZSt18uninitialized_copyIPKN4i18n12phonenumbers12_GLOBAL__N_110NumberTestEPS3_ET0_T_S8_S7_(ptr noundef %0, ptr noundef %1, ptr noundef %2) #4 {
  %4 = alloca ptr, align 8
  %5 = alloca ptr, align 8
  %6 = alloca ptr, align 8
  %7 = alloca i8, align 1
  %8 = alloca i8, align 1
  store ptr %0, ptr %4, align 8
  store ptr %1, ptr %5, align 8
  store ptr %2, ptr %6, align 8
  store i8 0, ptr %7, align 1
  store i8 0, ptr %8, align 1
  %9 = load ptr, ptr %4, align 8
  %10 = load ptr, ptr %5, align 8
  %11 = load ptr, ptr %6, align 8
  %12 = call noundef ptr @_ZNSt20__uninitialized_copyILb0EE13__uninit_copyIPKN4i18n12phonenumbers12_GLOBAL__N_110NumberTestEPS5_EET0_T_SA_S9_(ptr noundef %9, ptr noundef %10, ptr noundef %11)
  ret ptr %12
}

; Function Attrs: mustprogress uwtable
define internal noundef ptr @_ZSt22__uninitialized_copy_aIPKN4i18n12phonenumbers12_GLOBAL__N_110NumberTestEPS3_S3_ET0_T_S8_S7_RSaIT1_E(ptr noundef %0, ptr noundef %1, ptr noundef %2, ptr noundef nonnull align 1 dereferenceable(1) %3) #4 {
  %5 = alloca ptr, align 8
  %6 = alloca ptr, align 8
  %7 = alloca ptr, align 8
  %8 = alloca ptr, align 8
  store ptr %0, ptr %5, align 8
  store ptr %1, ptr %6, align 8
  store ptr %2, ptr %7, align 8
  store ptr %3, ptr %8, align 8
  %9 = load ptr, ptr %5, align 8
  %10 = load ptr, ptr %6, align 8
  %11 = load ptr, ptr %7, align 8
  %12 = call noundef ptr @_ZSt18uninitialized_copyIPKN4i18n12phonenumbers12_GLOBAL__N_110NumberTestEPS3_ET0_T_S8_S7_(ptr noundef %9, ptr noundef %10, ptr noundef %11)
  ret ptr %12
}